target datalayout = "e-m:e-p270:32:32-p271:32:32-p272:64:64-i64:64-i128:128-f80:128-n8:16:32:64-S128"
target triple = "x86_64-pc-linux-gnu"

%struct.strbuf = type { i64, i64, ptr }

@__const.wrap_in_html.buf = private unnamed_addr constant %struct.strbuf { i64 0, i64 0, ptr @strbuf_slopbuf }, align 8
@wrap_in_html.content_type = internal global ptr @.str.126, align 8
@wrap_in_html.pre_open = internal global ptr @.str.127, align 8
@wrap_in_html.pre_close = internal global ptr @.str.128, align 8
@.str.129 = private unnamed_addr constant [3 x i8] c"\0A\0A\00", align 1

; Function Attrs: inlinehint nounwind uwtable
define internal i64 @strbuf_avail(ptr noundef %0) #5 {
  %2 = alloca ptr, align 8
  store ptr %0, ptr %2, align 8, !tbaa !40
  %3 = load ptr, ptr %2, align 8, !tbaa !40
  %4 = getelementptr inbounds nuw %struct.strbuf, ptr %3, i32 0, i32 0
  %5 = load i64, ptr %4, align 8, !tbaa !155
  %6 = icmp ne i64 %5, 0
  br i1 %6, label %7, label %16

7:                                                ; preds = %1
  %8 = load ptr, ptr %2, align 8, !tbaa !40
  %9 = getelementptr inbounds nuw %struct.strbuf, ptr %8, i32 0, i32 0
  %10 = load i64, ptr %9, align 8, !tbaa !155
  %11 = load ptr, ptr %2, align 8, !tbaa !40
  %12 = getelementptr inbounds nuw %struct.strbuf, ptr %11, i32 0, i32 1
  %13 = load i64, ptr %12, align 8, !tbaa !20
  %14 = sub i64 %10, %13
  %15 = sub i64 %14, 1
  br label %17

16:                                               ; preds = %1
  br label %17

17:                                               ; preds = %16, %7
  %18 = phi i64 [ %15, %7 ], [ 0, %16 ]
  ret i64 %18
}

; Function Attrs: inlinehint nounwind uwtable
define internal void @strbuf_addch(ptr noundef %0, i32 noundef %1) #5 {
  %3 = alloca ptr, align 8
  %4 = alloca i32, align 4
  store ptr %0, ptr %3, align 8, !tbaa !40
  store i32 %1, ptr %4, align 4, !tbaa !4
  %5 = load ptr, ptr %3, align 8, !tbaa !40
  %6 = call i64 @strbuf_avail(ptr noundef %5)
  %7 = icmp ne i64 %6, 0
  br i1 %7, label %10, label %8

8:                                                ; preds = %2
  %9 = load ptr, ptr %3, align 8, !tbaa !40
  call void @strbuf_grow(ptr noundef %9, i64 noundef 1)
  br label %10

10:                                               ; preds = %8, %2
  %11 = load i32, ptr %4, align 4, !tbaa !4
  %12 = trunc i32 %11 to i8
  %13 = load ptr, ptr %3, align 8, !tbaa !40
  %14 = getelementptr inbounds nuw %struct.strbuf, ptr %13, i32 0, i32 2
  %15 = load ptr, ptr %14, align 8, !tbaa !42
  %16 = load ptr, ptr %3, align 8, !tbaa !40
  %17 = getelementptr inbounds nuw %struct.strbuf, ptr %16, i32 0, i32 1
  %18 = load i64, ptr %17, align 8, !tbaa !20
  %19 = add i64 %18, 1
  store i64 %19, ptr %17, align 8, !tbaa !20
  %20 = getelementptr inbounds nuw i8, ptr %15, i64 %18
  store i8 %12, ptr %20, align 1, !tbaa !39
  %21 = load ptr, ptr %3, align 8, !tbaa !40
  %22 = getelementptr inbounds nuw %struct.strbuf, ptr %21, i32 0, i32 2
  %23 = load ptr, ptr %22, align 8, !tbaa !42
  %24 = load ptr, ptr %3, align 8, !tbaa !40
  %25 = getelementptr inbounds nuw %struct.strbuf, ptr %24, i32 0, i32 1
  %26 = load i64, ptr %25, align 8, !tbaa !20
  %27 = getelementptr inbounds nuw i8, ptr %23, i64 %26
  store i8 0, ptr %27, align 1, !tbaa !39
  ret void
}

; Function Attrs: inlinehint nounwind uwtable
define internal void @strbuf_addstr(ptr noundef %0, ptr noundef %1) #5 {
  %3 = alloca ptr, align 8
  %4 = alloca ptr, align 8
  store ptr %0, ptr %3, align 8, !tbaa !40
  store ptr %1, ptr %4, align 8, !tbaa !29
  %5 = load ptr, ptr %3, align 8, !tbaa !40
  %6 = load ptr, ptr %4, align 8, !tbaa !29
  %7 = load ptr, ptr %4, align 8, !tbaa !29
  %8 = call i64 @strlen(ptr noundef %7) #13
  call void @strbuf_add(ptr noundef %5, ptr noundef %6, i64 noundef %8)
  ret void
}

; Function Attrs: nounwind uwtable
define internal void @wrap_in_html(ptr noundef %0) #0 {
  %2 = alloca ptr, align 8
  %3 = alloca %struct.strbuf, align 8
  %4 = alloca ptr, align 8
  %5 = alloca i32, align 4
  store ptr %0, ptr %2, align 8, !tbaa !40
  call void @llvm.lifetime.start.p0(i64 24, ptr %3) #11
  call void @llvm.memcpy.p0.p0.i64(ptr align 8 %3, ptr align 8 @__const.wrap_in_html.buf, i64 24, i1 false)
  call void @llvm.lifetime.start.p0(i64 8, ptr %4) #11
  %6 = load ptr, ptr %2, align 8, !tbaa !40
  %7 = getelementptr inbounds nuw %struct.strbuf, ptr %6, i32 0, i32 2
  %8 = load ptr, ptr %7, align 8, !tbaa !42
  %9 = call ptr @strstr(ptr noundef %8, ptr noundef @.str.129) #13
  store ptr %9, ptr %4, align 8, !tbaa !29
  %10 = load ptr, ptr %4, align 8, !tbaa !29
  %11 = icmp ne ptr %10, null
  br i1 %11, label %13, label %12

12:                                               ; preds = %1
  store i32 1, ptr %5, align 4
  br label %33

13:                                               ; preds = %1
  %14 = load ptr, ptr %4, align 8, !tbaa !29
  %15 = getelementptr inbounds i8, ptr %14, i64 2
  store ptr %15, ptr %4, align 8, !tbaa !29
  %16 = load ptr, ptr %2, align 8, !tbaa !40
  %17 = getelementptr inbounds nuw %struct.strbuf, ptr %16, i32 0, i32 2
  %18 = load ptr, ptr %17, align 8, !tbaa !42
  %19 = load ptr, ptr %4, align 8, !tbaa !29
  %20 = load ptr, ptr %2, align 8, !tbaa !40
  %21 = getelementptr inbounds nuw %struct.strbuf, ptr %20, i32 0, i32 2
  %22 = load ptr, ptr %21, align 8, !tbaa !42
  %23 = ptrtoint ptr %19 to i64
  %24 = ptrtoint ptr %22 to i64
  %25 = sub i64 %23, %24
  %26 = sub nsw i64 %25, 1
  call void @strbuf_add(ptr noundef %3, ptr noundef %18, i64 noundef %26)
  %27 = load ptr, ptr @wrap_in_html.content_type, align 8, !tbaa !29
  call void @strbuf_addstr(ptr noundef %3, ptr noundef %27)
  call void @strbuf_addch(ptr noundef %3, i32 noundef 10)
  %28 = load ptr, ptr @wrap_in_html.pre_open, align 8, !tbaa !29
  call void @strbuf_addstr(ptr noundef %3, ptr noundef %28)
  %29 = load ptr, ptr %4, align 8, !tbaa !29
  call void @strbuf_addstr_xml_quoted(ptr noundef %3, ptr noundef %29)
  %30 = load ptr, ptr @wrap_in_html.pre_close, align 8, !tbaa !29
  call void @strbuf_addstr(ptr noundef %3, ptr noundef %30)
  %31 = load ptr, ptr %2, align 8, !tbaa !40
  call void @strbuf_release(ptr noundef %31)
  %32 = load ptr, ptr %2, align 8, !tbaa !40
  call void @llvm.memcpy.p0.p0.i64(ptr align 8 %32, ptr align 8 %3, i64 24, i1 false), !tbaa.struct !89
  store i32 0, ptr %5, align 4
  br label %33

33:                                               ; preds = %13, %12
  call void @llvm.lifetime.end.p0(i64 8, ptr %4) #11
  call void @llvm.lifetime.end.p0(i64 24, ptr %3) #11
  %34 = load i32, ptr %5, align 4
  switch i32 %34, label %36 [
    i32 0, label %35
    i32 1, label %35
  ]

35:                                               ; preds = %33, %33
  ret void

36:                                               ; preds = %33
  unreachable
}