; Function Attrs: nounwind uwtable
define internal fastcc void @wrap_in_html(ptr noundef nonnull %0) unnamed_addr #0 {
  %2 = alloca %struct.strbuf, align 8
  call void @llvm.lifetime.start.p0(i64 24, ptr nonnull %2) #22
  call void @llvm.memcpy.p0.p0.i64(ptr noundef nonnull align 8 dereferenceable(24) %2, ptr noundef nonnull align 8 dereferenceable(24) @__const.setup_curl.auth, i64 24, i1 false)
  %3 = getelementptr inbounds nuw i8, ptr %0, i64 16
  %4 = load ptr, ptr %3, align 8, !tbaa !23
  %5 = tail call ptr @strstr(ptr noundef nonnull dereferenceable(1) %4, ptr noundef nonnull dereferenceable(1) @.str.129) #25
  %.not = icmp eq ptr %5, null
  br i1 %.not, label %23, label %6

6:                                                ; preds = %1
  %7 = getelementptr inbounds nuw i8, ptr %5, i64 2
  %8 = ptrtoint ptr %7 to i64
  %9 = ptrtoint ptr %4 to i64
  %10 = xor i64 %9, -1
  %11 = add i64 %8, %10
  call void @strbuf_add(ptr noundef nonnull %2, ptr noundef nonnull %4, i64 noundef %11) #22
  call void @strbuf_add(ptr noundef nonnull %2, ptr noundef nonnull @.str.126, i64 noundef 25) #22
  %12 = load i64, ptr %2, align 8, !tbaa !27
  %.not.i.i = icmp eq i64 %12, 0
  br i1 %.not.i.i, label %strbuf_avail.exit.thread.i, label %strbuf_avail.exit.i

strbuf_avail.exit.i:                              ; preds = %6
  %13 = getelementptr inbounds nuw i8, ptr %2, i64 8
  %14 = load i64, ptr %13, align 8, !tbaa !20
  %.neg.i = add i64 %14, 1
  %.not.i = icmp eq i64 %12, %.neg.i
  br i1 %.not.i, label %strbuf_avail.exit.thread.i, label %strbuf_addch.exit

strbuf_avail.exit.thread.i:                       ; preds = %strbuf_avail.exit.i, %6
  call void @strbuf_grow(ptr noundef nonnull %2, i64 noundef 1) #22
  %.phi.trans.insert.i = getelementptr inbounds nuw i8, ptr %2, i64 8
  %.pre.i = load i64, ptr %.phi.trans.insert.i, align 8, !tbaa !20
  %.pre7.i = add i64 %.pre.i, 1
  br label %strbuf_addch.exit

strbuf_addch.exit:                                ; preds = %strbuf_avail.exit.i, %strbuf_avail.exit.thread.i
  %.pre-phi.i = phi i64 [ %.pre7.i, %strbuf_avail.exit.thread.i ], [ %.neg.i, %strbuf_avail.exit.i ]
  %15 = phi i64 [ %.pre.i, %strbuf_avail.exit.thread.i ], [ %14, %strbuf_avail.exit.i ]
  %16 = getelementptr inbounds nuw i8, ptr %2, i64 16
  %17 = load ptr, ptr %16, align 8, !tbaa !23
  %18 = getelementptr inbounds nuw i8, ptr %2, i64 8
  store i64 %.pre-phi.i, ptr %18, align 8, !tbaa !20
  %19 = getelementptr inbounds nuw i8, ptr %17, i64 %15
  store i8 10, ptr %19, align 1, !tbaa !26
  %20 = load ptr, ptr %16, align 8, !tbaa !23
  %21 = load i64, ptr %18, align 8, !tbaa !20
  %22 = getelementptr inbounds nuw i8, ptr %20, i64 %21
  store i8 0, ptr %22, align 1, !tbaa !26
  call void @strbuf_add(ptr noundef nonnull %2, ptr noundef nonnull @.str.127, i64 noundef 6) #22
  call void @strbuf_addstr_xml_quoted(ptr noundef nonnull %2, ptr noundef nonnull %7) #22
  call void @strbuf_add(ptr noundef nonnull %2, ptr noundef nonnull @.str.128, i64 noundef 7) #22
  call void @strbuf_release(ptr noundef nonnull %0) #22
  call void @llvm.memcpy.p0.p0.i64(ptr noundef nonnull align 8 dereferenceable(24) %0, ptr noundef nonnull align 8 dereferenceable(24) %2, i64 24, i1 false), !tbaa.struct !84
  br label %23

23:                                               ; preds = %1, %strbuf_addch.exit
  call void @llvm.lifetime.end.p0(i64 24, ptr nonnull %2) #22
  ret void
}